target datalayout = "e-m:e-p270:32:32-p271:32:32-p272:64:64-i64:64-i128:128-f80:128-n8:16:32:64-S128"
target triple = "x86_64-pc-linux-gnu"

%struct.VhostUserMsg = type <{ i32, i32, i32, %union.anon, [8 x i32], i32, ptr }>
%union.anon = type { %struct.VhostUserMemory, [8 x i8] }
%struct.VhostUserMemory = type { i32, i32, [8 x %struct.VhostUserMemoryRegion] }
%struct.VhostUserMemoryRegion = type { i64, i64, i64, i64 }
%struct.iovec = type { ptr, i64 }
%struct.msghdr = type { ptr, i32, ptr, i64, ptr, i64, i32 }
%struct.cmsghdr = type { i64, i32, i32, [0 x i8] }

@.str.40 = private unnamed_addr constant [50 x i8] c"../qemu/subprojects/libvhost-user/libvhost-user.c\00", align 1
@.str.53 = private unnamed_addr constant [47 x i8] c"vmsg->fd_num <= VHOST_MEMORY_BASELINE_NREGIONS\00", align 1
@.str.55 = private unnamed_addr constant [24 x i8] c"Error while recvmsg: %s\00", align 1
@__PRETTY_FUNCTION__.vu_message_read_default = private unnamed_addr constant [60 x i8] c"_Bool vu_message_read_default(VuDev *, int, VhostUserMsg *)\00", align 1
@.str.56 = private unnamed_addr constant [93 x i8] c"Error: too big message request: %d, size: vmsg->size: %u, while sizeof(vmsg->payload) = %zu\0A\00", align 1
@.str.57 = private unnamed_addr constant [24 x i8] c"Error while reading: %s\00", align 1
@.str.58 = private unnamed_addr constant [27 x i8] c"(uint32_t)rc == vmsg->size\00", align 1

; Function Attrs: nounwind uwtable
define internal void @vmsg_close_fds(ptr noundef %0) #0 {
  %2 = alloca ptr, align 8
  %3 = alloca i32, align 4
  store ptr %0, ptr %2, align 8
  call void @llvm.lifetime.start.p0(i64 4, ptr %3) #13
  store i32 0, ptr %3, align 4, !annotation !4
  store i32 0, ptr %3, align 4
  br label %4

4:                                                ; preds = %18, %1
  %5 = load i32, ptr %3, align 4
  %6 = load ptr, ptr %2, align 8
  %7 = getelementptr inbounds nuw %struct.VhostUserMsg, ptr %6, i32 0, i32 5
  %8 = load i32, ptr %7, align 1
  %9 = icmp slt i32 %5, %8
  br i1 %9, label %10, label %21

10:                                               ; preds = %4
  %11 = load ptr, ptr %2, align 8
  %12 = getelementptr inbounds nuw %struct.VhostUserMsg, ptr %11, i32 0, i32 4
  %13 = load i32, ptr %3, align 4
  %14 = sext i32 %13 to i64
  %15 = getelementptr inbounds [8 x i32], ptr %12, i64 0, i64 %14
  %16 = load i32, ptr %15, align 1
  %17 = call i32 @close(i32 noundef %16)
  br label %18

18:                                               ; preds = %10
  %19 = load i32, ptr %3, align 4
  %20 = add i32 %19, 1
  store i32 %20, ptr %3, align 4
  br label %4

21:                                               ; preds = %4
  call void @llvm.lifetime.end.p0(i64 4, ptr %3) #13
  ret void
}

; Function Attrs: inlinehint nounwind uwtable
define available_externally ptr @__cmsg_nxthdr(ptr noundef %0, ptr noundef %1) #3 {
  %3 = alloca ptr, align 8
  %4 = alloca ptr, align 8
  %5 = alloca ptr, align 8
  store ptr %0, ptr %4, align 8
  store ptr %1, ptr %5, align 8
  %6 = load ptr, ptr %5, align 8
  %7 = getelementptr inbounds nuw %struct.cmsghdr, ptr %6, i32 0, i32 0
  %8 = load i64, ptr %7, align 8
  %9 = icmp ult i64 %8, 16
  br i1 %9, label %10, label %11

10:                                               ; preds = %2
  store ptr null, ptr %3, align 8
  br label %50

11:                                               ; preds = %2
  %12 = load ptr, ptr %5, align 8
  %13 = load ptr, ptr %5, align 8
  %14 = getelementptr inbounds nuw %struct.cmsghdr, ptr %13, i32 0, i32 0
  %15 = load i64, ptr %14, align 8
  %16 = add i64 %15, 8
  %17 = sub i64 %16, 1
  %18 = and i64 %17, -8
  %19 = getelementptr inbounds nuw i8, ptr %12, i64 %18
  store ptr %19, ptr %5, align 8
  %20 = load ptr, ptr %5, align 8
  %21 = getelementptr inbounds %struct.cmsghdr, ptr %20, i64 1
  %22 = load ptr, ptr %4, align 8
  %23 = getelementptr inbounds nuw %struct.msghdr, ptr %22, i32 0, i32 4
  %24 = load ptr, ptr %23, align 8
  %25 = load ptr, ptr %4, align 8
  %26 = getelementptr inbounds nuw %struct.msghdr, ptr %25, i32 0, i32 5
  %27 = load i64, ptr %26, align 8
  %28 = getelementptr inbounds nuw i8, ptr %24, i64 %27
  %29 = icmp ugt ptr %21, %28
  br i1 %29, label %47, label %30

30:                                               ; preds = %11
  %31 = load ptr, ptr %5, align 8
  %32 = load ptr, ptr %5, align 8
  %33 = getelementptr inbounds nuw %struct.cmsghdr, ptr %32, i32 0, i32 0
  %34 = load i64, ptr %33, align 8
  %35 = add i64 %34, 8
  %36 = sub i64 %35, 1
  %37 = and i64 %36, -8
  %38 = getelementptr inbounds nuw i8, ptr %31, i64 %37
  %39 = load ptr, ptr %4, align 8
  %40 = getelementptr inbounds nuw %struct.msghdr, ptr %39, i32 0, i32 4
  %41 = load ptr, ptr %40, align 8
  %42 = load ptr, ptr %4, align 8
  %43 = getelementptr inbounds nuw %struct.msghdr, ptr %42, i32 0, i32 5
  %44 = load i64, ptr %43, align 8
  %45 = getelementptr inbounds nuw i8, ptr %41, i64 %44
  %46 = icmp ugt ptr %38, %45
  br i1 %46, label %47, label %48

47:                                               ; preds = %30, %11
  store ptr null, ptr %3, align 8
  br label %50

48:                                               ; preds = %30
  %49 = load ptr, ptr %5, align 8
  store ptr %49, ptr %3, align 8
  br label %50

50:                                               ; preds = %48, %47, %10
  %51 = load ptr, ptr %3, align 8
  ret ptr %51
}

; Function Attrs: nounwind uwtable
define internal zeroext i1 @vu_message_read_default(ptr noundef %0, i32 noundef %1, ptr noundef %2) #0 {
  %4 = alloca i1, align 1
  %5 = alloca ptr, align 8
  %6 = alloca i32, align 4
  %7 = alloca ptr, align 8
  %8 = alloca [48 x i8], align 16
  %9 = alloca %struct.iovec, align 8
  %10 = alloca %struct.msghdr, align 8
  %11 = alloca i64, align 8
  %12 = alloca ptr, align 8
  %13 = alloca i32, align 4
  %14 = alloca i32, align 4
  store ptr %0, ptr %5, align 8
  store i32 %1, ptr %6, align 4
  store ptr %2, ptr %7, align 8
  call void @llvm.lifetime.start.p0(i64 48, ptr %8) #13
  call void @llvm.memset.p0.i64(ptr align 16 %8, i8 0, i64 48, i1 false)
  call void @llvm.lifetime.start.p0(i64 16, ptr %9) #13
  call void @llvm.memset.p0.i64(ptr align 8 %9, i8 0, i64 16, i1 false), !annotation !4
  %15 = getelementptr inbounds nuw %struct.iovec, ptr %9, i32 0, i32 0
  %16 = load ptr, ptr %7, align 8
  store ptr %16, ptr %15, align 8
  %17 = getelementptr inbounds nuw %struct.iovec, ptr %9, i32 0, i32 1
  store i64 12, ptr %17, align 8
  call void @llvm.lifetime.start.p0(i64 56, ptr %10) #13
  call void @llvm.memset.p0.i64(ptr align 8 %10, i8 0, i64 56, i1 false), !annotation !4
  %18 = getelementptr inbounds nuw %struct.msghdr, ptr %10, i32 0, i32 0
  store ptr null, ptr %18, align 8
  %19 = getelementptr inbounds nuw %struct.msghdr, ptr %10, i32 0, i32 1
  store i32 0, ptr %19, align 8
  %20 = getelementptr i8, ptr %10, i64 12
  call void @llvm.memset.p0.i64(ptr align 4 %20, i8 0, i64 4, i1 false)
  %21 = getelementptr inbounds nuw %struct.msghdr, ptr %10, i32 0, i32 2
  store ptr %9, ptr %21, align 8
  %22 = getelementptr inbounds nuw %struct.msghdr, ptr %10, i32 0, i32 3
  store i64 1, ptr %22, align 8
  %23 = getelementptr inbounds nuw %struct.msghdr, ptr %10, i32 0, i32 4
  %24 = getelementptr inbounds [48 x i8], ptr %8, i64 0, i64 0
  store ptr %24, ptr %23, align 8
  %25 = getelementptr inbounds nuw %struct.msghdr, ptr %10, i32 0, i32 5
  store i64 48, ptr %25, align 8
  %26 = getelementptr inbounds nuw %struct.msghdr, ptr %10, i32 0, i32 6
  store i32 0, ptr %26, align 8
  %27 = getelementptr i8, ptr %10, i64 52
  call void @llvm.memset.p0.i64(ptr align 4 %27, i8 0, i64 4, i1 false)
  call void @llvm.lifetime.start.p0(i64 8, ptr %11) #13
  store i64 0, ptr %11, align 8, !annotation !4
  call void @llvm.lifetime.start.p0(i64 8, ptr %12) #13
  store ptr null, ptr %12, align 8, !annotation !4
  call void @llvm.lifetime.start.p0(i64 4, ptr %13) #13
  store i32 0, ptr %13, align 4, !annotation !4
  br label %28

28:                                               ; preds = %45, %3
  %29 = load i32, ptr %6, align 4
  %30 = call i64 @recvmsg(i32 noundef %29, ptr noundef %10, i32 noundef 0)
  %31 = trunc i64 %30 to i32
  store i32 %31, ptr %13, align 4
  br label %32

32:                                               ; preds = %28
  %33 = load i32, ptr %13, align 4
  %34 = icmp slt i32 %33, 0
  br i1 %34, label %35, label %45

35:                                               ; preds = %32
  %36 = call ptr @__errno_location() #14
  %37 = load i32, ptr %36, align 4
  %38 = icmp eq i32 %37, 4
  br i1 %38, label %43, label %39

39:                                               ; preds = %35
  %40 = call ptr @__errno_location() #14
  %41 = load i32, ptr %40, align 4
  %42 = icmp eq i32 %41, 11
  br label %43

43:                                               ; preds = %39, %35
  %44 = phi i1 [ true, %35 ], [ %42, %39 ]
  br label %45

45:                                               ; preds = %43, %32
  %46 = phi i1 [ false, %32 ], [ %44, %43 ]
  br i1 %46, label %28, label %47

47:                                               ; preds = %45
  %48 = load i32, ptr %13, align 4
  %49 = icmp slt i32 %48, 0
  br i1 %49, label %50, label %55

50:                                               ; preds = %47
  %51 = load ptr, ptr %5, align 8
  %52 = call ptr @__errno_location() #14
  %53 = load i32, ptr %52, align 4
  %54 = call ptr @strerror(i32 noundef %53) #13
  call void (ptr, ptr, ...) @vu_panic(ptr noundef %51, ptr noundef @.str.55, ptr noundef %54)
  store i1 false, ptr %4, align 1
  store i32 1, ptr %14, align 4
  br label %173

55:                                               ; preds = %47
  %56 = load ptr, ptr %7, align 8
  %57 = getelementptr inbounds nuw %struct.VhostUserMsg, ptr %56, i32 0, i32 5
  store i32 0, ptr %57, align 1
  %58 = getelementptr inbounds nuw %struct.msghdr, ptr %10, i32 0, i32 5
  %59 = load i64, ptr %58, align 8
  %60 = icmp uge i64 %59, 16
  br i1 %60, label %61, label %64

61:                                               ; preds = %55
  %62 = getelementptr inbounds nuw %struct.msghdr, ptr %10, i32 0, i32 4
  %63 = load ptr, ptr %62, align 8
  br label %65

64:                                               ; preds = %55
  br label %65

65:                                               ; preds = %64, %61
  %66 = phi ptr [ %63, %61 ], [ null, %64 ]
  store ptr %66, ptr %12, align 8
  br label %67

67:                                               ; preds = %105, %65
  %68 = load ptr, ptr %12, align 8
  %69 = icmp ne ptr %68, null
  br i1 %69, label %70, label %108

70:                                               ; preds = %67
  %71 = load ptr, ptr %12, align 8
  %72 = getelementptr inbounds nuw %struct.cmsghdr, ptr %71, i32 0, i32 1
  %73 = load i32, ptr %72, align 8
  %74 = icmp eq i32 %73, 1
  br i1 %74, label %75, label %104

75:                                               ; preds = %70
  %76 = load ptr, ptr %12, align 8
  %77 = getelementptr inbounds nuw %struct.cmsghdr, ptr %76, i32 0, i32 2
  %78 = load i32, ptr %77, align 4
  %79 = icmp eq i32 %78, 1
  br i1 %79, label %80, label %104

80:                                               ; preds = %75
  %81 = load ptr, ptr %12, align 8
  %82 = getelementptr inbounds nuw %struct.cmsghdr, ptr %81, i32 0, i32 0
  %83 = load i64, ptr %82, align 8
  %84 = sub i64 %83, 16
  store i64 %84, ptr %11, align 8
  %85 = load i64, ptr %11, align 8
  %86 = udiv i64 %85, 4
  %87 = trunc i64 %86 to i32
  %88 = load ptr, ptr %7, align 8
  %89 = getelementptr inbounds nuw %struct.VhostUserMsg, ptr %88, i32 0, i32 5
  store i32 %87, ptr %89, align 1
  %90 = load ptr, ptr %7, align 8
  %91 = getelementptr inbounds nuw %struct.VhostUserMsg, ptr %90, i32 0, i32 5
  %92 = load i32, ptr %91, align 1
  %93 = icmp sle i32 %92, 8
  br i1 %93, label %94, label %95

94:                                               ; preds = %80
  br label %96

95:                                               ; preds = %80
  call void @__assert_fail(ptr noundef @.str.53, ptr noundef @.str.40, i32 noundef 571, ptr noundef @__PRETTY_FUNCTION__.vu_message_read_default) #15
  unreachable

96:                                               ; preds = %94
  %97 = load ptr, ptr %7, align 8
  %98 = getelementptr inbounds nuw %struct.VhostUserMsg, ptr %97, i32 0, i32 4
  %99 = getelementptr inbounds [8 x i32], ptr %98, i64 0, i64 0
  %100 = load ptr, ptr %12, align 8
  %101 = getelementptr inbounds nuw %struct.cmsghdr, ptr %100, i32 0, i32 3
  %102 = getelementptr inbounds [0 x i8], ptr %101, i64 0, i64 0
  %103 = load i64, ptr %11, align 8
  call void @llvm.memcpy.p0.p0.i64(ptr align 1 %99, ptr align 8 %102, i64 %103, i1 false)
  br label %108

104:                                              ; preds = %75, %70
  br label %105

105:                                              ; preds = %104
  %106 = load ptr, ptr %12, align 8
  %107 = call ptr @__cmsg_nxthdr(ptr noundef %10, ptr noundef %106) #13
  store ptr %107, ptr %12, align 8
  br label %67

108:                                              ; preds = %96, %67
  %109 = load ptr, ptr %7, align 8
  %110 = getelementptr inbounds nuw %struct.VhostUserMsg, ptr %109, i32 0, i32 2
  %111 = load i32, ptr %110, align 1
  %112 = zext i32 %111 to i64
  %113 = icmp ugt i64 %112, 272
  br i1 %113, label %114, label %122

114:                                              ; preds = %108
  %115 = load ptr, ptr %5, align 8
  %116 = load ptr, ptr %7, align 8
  %117 = getelementptr inbounds nuw %struct.VhostUserMsg, ptr %116, i32 0, i32 0
  %118 = load i32, ptr %117, align 1
  %119 = load ptr, ptr %7, align 8
  %120 = getelementptr inbounds nuw %struct.VhostUserMsg, ptr %119, i32 0, i32 2
  %121 = load i32, ptr %120, align 1
  call void (ptr, ptr, ...) @vu_panic(ptr noundef %115, ptr noundef @.str.56, i32 noundef %118, i32 noundef %121, i64 noundef 272)
  br label %171

122:                                              ; preds = %108
  %123 = load ptr, ptr %7, align 8
  %124 = getelementptr inbounds nuw %struct.VhostUserMsg, ptr %123, i32 0, i32 2
  %125 = load i32, ptr %124, align 1
  %126 = icmp ne i32 %125, 0
  br i1 %126, label %127, label %170

127:                                              ; preds = %122
  br label %128

128:                                              ; preds = %151, %127
  %129 = load i32, ptr %6, align 4
  %130 = load ptr, ptr %7, align 8
  %131 = getelementptr inbounds nuw %struct.VhostUserMsg, ptr %130, i32 0, i32 3
  %132 = load ptr, ptr %7, align 8
  %133 = getelementptr inbounds nuw %struct.VhostUserMsg, ptr %132, i32 0, i32 2
  %134 = load i32, ptr %133, align 1
  %135 = zext i32 %134 to i64
  %136 = call i64 @read(i32 noundef %129, ptr noundef %131, i64 noundef %135)
  %137 = trunc i64 %136 to i32
  store i32 %137, ptr %13, align 4
  br label %138

138:                                              ; preds = %128
  %139 = load i32, ptr %13, align 4
  %140 = icmp slt i32 %139, 0
  br i1 %140, label %141, label %151

141:                                              ; preds = %138
  %142 = call ptr @__errno_location() #14
  %143 = load i32, ptr %142, align 4
  %144 = icmp eq i32 %143, 4
  br i1 %144, label %149, label %145

145:                                              ; preds = %141
  %146 = call ptr @__errno_location() #14
  %147 = load i32, ptr %146, align 4
  %148 = icmp eq i32 %147, 11
  br label %149

149:                                              ; preds = %145, %141
  %150 = phi i1 [ true, %141 ], [ %148, %145 ]
  br label %151

151:                                              ; preds = %149, %138
  %152 = phi i1 [ false, %138 ], [ %150, %149 ]
  br i1 %152, label %128, label %153

153:                                              ; preds = %151
  %154 = load i32, ptr %13, align 4
  %155 = icmp sle i32 %154, 0
  br i1 %155, label %156, label %161

156:                                              ; preds = %153
  %157 = load ptr, ptr %5, align 8
  %158 = call ptr @__errno_location() #14
  %159 = load i32, ptr %158, align 4
  %160 = call ptr @strerror(i32 noundef %159) #13
  call void (ptr, ptr, ...) @vu_panic(ptr noundef %157, ptr noundef @.str.57, ptr noundef %160)
  br label %171

161:                                              ; preds = %153
  %162 = load i32, ptr %13, align 4
  %163 = load ptr, ptr %7, align 8
  %164 = getelementptr inbounds nuw %struct.VhostUserMsg, ptr %163, i32 0, i32 2
  %165 = load i32, ptr %164, align 1
  %166 = icmp eq i32 %162, %165
  br i1 %166, label %167, label %168

167:                                              ; preds = %161
  br label %169

168:                                              ; preds = %161
  call void @__assert_fail(ptr noundef @.str.58, ptr noundef @.str.40, i32 noundef 595, ptr noundef @__PRETTY_FUNCTION__.vu_message_read_default) #15
  unreachable

169:                                              ; preds = %167
  br label %170

170:                                              ; preds = %169, %122
  store i1 true, ptr %4, align 1
  store i32 1, ptr %14, align 4
  br label %173

171:                                              ; preds = %156, %114
  %172 = load ptr, ptr %7, align 8
  call void @vmsg_close_fds(ptr noundef %172)
  store i1 false, ptr %4, align 1
  store i32 1, ptr %14, align 4
  br label %173

173:                                              ; preds = %171, %170, %50
  call void @llvm.lifetime.end.p0(i64 4, ptr %13) #13
  call void @llvm.lifetime.end.p0(i64 8, ptr %12) #13
  call void @llvm.lifetime.end.p0(i64 8, ptr %11) #13
  call void @llvm.lifetime.end.p0(i64 56, ptr %10) #13
  call void @llvm.lifetime.end.p0(i64 16, ptr %9) #13
  call void @llvm.lifetime.end.p0(i64 48, ptr %8) #13
  %174 = load i1, ptr %4, align 1
  ret i1 %174
}