; Function Attrs: nounwind uwtable
define internal noundef zeroext i1 @vu_message_read_default(ptr noundef %0, i32 noundef %1, ptr noundef %2) #3 {
  %4 = alloca [48 x i8], align 16
  %5 = alloca %struct.iovec, align 8
  %6 = alloca %struct.msghdr, align 8
  call void @llvm.lifetime.start.p0(i64 48, ptr nonnull %4) #21
  call void @llvm.memset.p0.i64(ptr noundef nonnull align 16 dereferenceable(48) %4, i8 0, i64 48, i1 false)
  call void @llvm.lifetime.start.p0(i64 16, ptr nonnull %5) #21
  store ptr %2, ptr %5, align 8
  %7 = getelementptr inbounds nuw i8, ptr %5, i64 8
  store i64 12, ptr %7, align 8
  call void @llvm.lifetime.start.p0(i64 56, ptr nonnull %6) #21
  %8 = getelementptr inbounds nuw i8, ptr %6, i64 16
  call void @llvm.memset.p0.i64(ptr noundef nonnull align 8 dereferenceable(16) %6, i8 0, i64 16, i1 false)
  store ptr %5, ptr %8, align 8
  %9 = getelementptr inbounds nuw i8, ptr %6, i64 24
  store i64 1, ptr %9, align 8
  %10 = getelementptr inbounds nuw i8, ptr %6, i64 32
  store ptr %4, ptr %10, align 8
  %11 = getelementptr inbounds nuw i8, ptr %6, i64 40
  store i64 48, ptr %11, align 8
  %12 = getelementptr inbounds nuw i8, ptr %6, i64 48
  store i32 0, ptr %12, align 8
  %13 = getelementptr inbounds nuw i8, ptr %6, i64 52
  store i32 0, ptr %13, align 4
  %14 = call i64 @recvmsg(i32 noundef %1, ptr noundef nonnull %6, i32 noundef 0) #21
  %15 = and i64 %14, 2147483648
  %.not47 = icmp eq i64 %15, 0
  br i1 %.not47, label %.critedge43, label %.lr.ph

.lr.ph:                                           ; preds = %3
  %16 = tail call ptr @__errno_location() #22
  br label %17

17:                                               ; preds = %.lr.ph, %.critedge2.backedge
  %18 = load i32, ptr %16, align 4
  switch i32 %18, label %.critedge [
    i32 4, label %.critedge2.backedge
    i32 11, label %.critedge2.backedge
  ]

.critedge2.backedge:                              ; preds = %17, %17
  %19 = call i64 @recvmsg(i32 noundef %1, ptr noundef nonnull %6, i32 noundef 0) #21
  %20 = and i64 %19, 2147483648
  %.not = icmp eq i64 %20, 0
  br i1 %.not, label %.critedge43, label %17

.critedge:                                        ; preds = %17
  %21 = call ptr @strerror(i32 noundef %18) #21
  call void (ptr, ptr, ...) @vu_panic(ptr noundef %0, ptr noundef nonnull @.str.55, ptr noundef %21)
  br label %vmsg_close_fds.exit

.critedge43:                                      ; preds = %.critedge2.backedge, %3
  %22 = getelementptr inbounds nuw i8, ptr %2, i64 316
  store i32 0, ptr %22, align 1
  %23 = load i64, ptr %11, align 8
  %24 = icmp ult i64 %23, 16
  %25 = load ptr, ptr %10, align 8
  %.not414852 = icmp eq ptr %25, null
  %.not4148 = select i1 %24, i1 true, i1 %.not414852
  br i1 %.not4148, label %.loopexit, label %.lr.ph50

.lr.ph50:                                         ; preds = %.critedge43
  %26 = getelementptr inbounds nuw i8, ptr %25, i64 %23
  br label %__cmsg_nxthdr.exit

__cmsg_nxthdr.exit:                               ; preds = %53, %.lr.ph50
  %.049 = phi ptr [ %25, %.lr.ph50 ], [ %50, %53 ]
  %27 = getelementptr inbounds nuw i8, ptr %.049, i64 8
  %28 = load i32, ptr %27, align 8
  %29 = icmp eq i32 %28, 1
  br i1 %29, label %30, label %44

30:                                               ; preds = %__cmsg_nxthdr.exit
  %31 = getelementptr inbounds nuw i8, ptr %.049, i64 12
  %32 = load i32, ptr %31, align 4
  %33 = icmp eq i32 %32, 1
  br i1 %33, label %34, label %44

34:                                               ; preds = %30
  %35 = load i64, ptr %.049, align 8
  %36 = add i64 %35, -16
  %37 = lshr i64 %36, 2
  %38 = trunc i64 %37 to i32
  store i32 %38, ptr %22, align 1
  %39 = icmp slt i32 %38, 9
  br i1 %39, label %41, label %40

40:                                               ; preds = %34
  call void @__assert_fail(ptr noundef nonnull @.str.53, ptr noundef nonnull @.str.40, i32 noundef 571, ptr noundef nonnull @__PRETTY_FUNCTION__.vu_message_read_default) #23
  unreachable

41:                                               ; preds = %34
  %42 = getelementptr inbounds nuw i8, ptr %2, i64 284
  %43 = getelementptr inbounds nuw i8, ptr %.049, i64 16
  call void @llvm.memcpy.p0.p0.i64(ptr nonnull align 1 %42, ptr nonnull align 8 %43, i64 %36, i1 false)
  br label %.loopexit

44:                                               ; preds = %__cmsg_nxthdr.exit, %30
  %45 = load i64, ptr %.049, align 8
  %46 = icmp ult i64 %45, 16
  br i1 %46, label %.loopexit, label %47

47:                                               ; preds = %44
  %48 = add i64 %45, 7
  %49 = and i64 %48, -8
  %50 = getelementptr inbounds nuw i8, ptr %.049, i64 %49
  %51 = getelementptr inbounds nuw i8, ptr %50, i64 16
  %52 = icmp ugt ptr %51, %26
  br i1 %52, label %.loopexit, label %53

53:                                               ; preds = %47
  %54 = load i64, ptr %50, align 8
  %55 = add i64 %54, 7
  %56 = and i64 %55, -8
  %57 = getelementptr inbounds nuw i8, ptr %50, i64 %56
  %58 = icmp ugt ptr %57, %26
  br i1 %58, label %.loopexit, label %__cmsg_nxthdr.exit

.loopexit:                                        ; preds = %53, %47, %44, %.critedge43, %41
  %59 = getelementptr inbounds nuw i8, ptr %2, i64 8
  %60 = load i32, ptr %59, align 1
  %61 = icmp ugt i32 %60, 272
  br i1 %61, label %62, label %64

62:                                               ; preds = %.loopexit
  %63 = load i32, ptr %2, align 1
  call void (ptr, ptr, ...) @vu_panic(ptr noundef %0, ptr noundef nonnull @.str.56, i32 noundef %63, i32 noundef %60, i64 noundef 272)
  br label %85

64:                                               ; preds = %.loopexit
  %.not42 = icmp eq i32 %60, 0
  br i1 %.not42, label %vmsg_close_fds.exit, label %.critedge6.preheader

.critedge6.preheader:                             ; preds = %64
  %65 = getelementptr inbounds nuw i8, ptr %2, i64 12
  %66 = zext nneg i32 %60 to i64
  %67 = call i64 @read(i32 noundef %1, ptr noundef nonnull %65, i64 noundef %66) #21
  %68 = trunc i64 %67 to i32
  %69 = icmp slt i32 %68, 0
  br i1 %69, label %.lr.ph51, label %.critedge4

.lr.ph51:                                         ; preds = %.critedge6.preheader
  %70 = tail call ptr @__errno_location() #22
  br label %71

71:                                               ; preds = %.lr.ph51, %.critedge6.backedge
  %72 = load i32, ptr %70, align 4
  switch i32 %72, label %.critedge4.thread [
    i32 4, label %.critedge6.backedge
    i32 11, label %.critedge6.backedge
  ]

.critedge6.backedge:                              ; preds = %71, %71
  %73 = load i32, ptr %59, align 1
  %74 = zext i32 %73 to i64
  %75 = call i64 @read(i32 noundef %1, ptr noundef nonnull %65, i64 noundef %74) #21
  %76 = trunc i64 %75 to i32
  %77 = icmp slt i32 %76, 0
  br i1 %77, label %71, label %.critedge4

.critedge4:                                       ; preds = %.critedge6.backedge, %.critedge6.preheader
  %.lcssa = phi i32 [ %68, %.critedge6.preheader ], [ %76, %.critedge6.backedge ]
  %78 = icmp eq i32 %.lcssa, 0
  br i1 %78, label %.critedge4..critedge4.thread_crit_edge, label %81

.critedge4..critedge4.thread_crit_edge:           ; preds = %.critedge4
  %.pre = tail call ptr @__errno_location() #22
  br label %.critedge4.thread

.critedge4.thread:                                ; preds = %71, %.critedge4..critedge4.thread_crit_edge
  %.pre-phi = phi ptr [ %.pre, %.critedge4..critedge4.thread_crit_edge ], [ %70, %71 ]
  %79 = load i32, ptr %.pre-phi, align 4
  %80 = call ptr @strerror(i32 noundef %79) #21
  call void (ptr, ptr, ...) @vu_panic(ptr noundef %0, ptr noundef nonnull @.str.57, ptr noundef %80)
  br label %85

81:                                               ; preds = %.critedge4
  %82 = load i32, ptr %59, align 1
  %83 = icmp eq i32 %82, %.lcssa
  br i1 %83, label %vmsg_close_fds.exit, label %84

84:                                               ; preds = %81
  call void @__assert_fail(ptr noundef nonnull @.str.58, ptr noundef nonnull @.str.40, i32 noundef 595, ptr noundef nonnull @__PRETTY_FUNCTION__.vu_message_read_default) #23
  unreachable

85:                                               ; preds = %.critedge4.thread, %62
  %86 = load i32, ptr %22, align 1
  %87 = icmp sgt i32 %86, 0
  br i1 %87, label %.lr.ph.i, label %vmsg_close_fds.exit

.lr.ph.i:                                         ; preds = %85
  %88 = getelementptr inbounds nuw i8, ptr %2, i64 284
  br label %89

89:                                               ; preds = %89, %.lr.ph.i
  %indvars.iv.i = phi i64 [ 0, %.lr.ph.i ], [ %indvars.iv.next.i, %89 ]
  %90 = getelementptr inbounds nuw [8 x i32], ptr %88, i64 0, i64 %indvars.iv.i
  %91 = load i32, ptr %90, align 1
  %92 = call i32 @close(i32 noundef %91) #21
  %indvars.iv.next.i = add nuw nsw i64 %indvars.iv.i, 1
  %93 = load i32, ptr %22, align 1
  %94 = sext i32 %93 to i64
  %95 = icmp slt i64 %indvars.iv.next.i, %94
  br i1 %95, label %89, label %vmsg_close_fds.exit

vmsg_close_fds.exit:                              ; preds = %89, %85, %64, %81, %.critedge
  %.037 = phi i1 [ false, %.critedge ], [ true, %81 ], [ true, %64 ], [ false, %85 ], [ false, %89 ]
  call void @llvm.lifetime.end.p0(i64 56, ptr nonnull %6) #21
  call void @llvm.lifetime.end.p0(i64 16, ptr nonnull %5) #21
  call void @llvm.lifetime.end.p0(i64 48, ptr nonnull %4) #21
  ret i1 %.037
}